target datalayout = "e-m:e-p270:32:32-p271:32:32-p272:64:64-i64:64-i128:128-f80:128-n8:16:32:64-S128"
target triple = "x86_64-pc-linux-gnu"

; Function Attrs: mustprogress uwtable
define dso_local noundef i32 @_Z7SolveP5Pffffff(ptr noundef %0, float noundef %1, float noundef %2, float noundef %3, float noundef %4, float noundef %5) #2 {
  %7 = alloca ptr, align 8
  %8 = alloca float, align 4
  %9 = alloca float, align 4
  %10 = alloca float, align 4
  %11 = alloca float, align 4
  %12 = alloca float, align 4
  %13 = alloca float, align 4
  %14 = alloca float, align 4
  %15 = alloca float, align 4
  %16 = alloca float, align 4
  %17 = alloca float, align 4
  store ptr %0, ptr %7, align 8, !tbaa !12
  store float %1, ptr %8, align 4, !tbaa !14
  store float %2, ptr %9, align 4, !tbaa !14
  store float %3, ptr %10, align 4, !tbaa !14
  store float %4, ptr %11, align 4, !tbaa !14
  store float %5, ptr %12, align 4, !tbaa !14
  call void @llvm.lifetime.start.p0(i64 4, ptr %13) #8
  %18 = load float, ptr %8, align 4, !tbaa !14
  %19 = load float, ptr %9, align 4, !tbaa !14
  %20 = load float, ptr %10, align 4, !tbaa !14
  %21 = load float, ptr %11, align 4, !tbaa !14
  %22 = load float, ptr %12, align 4, !tbaa !14
  %23 = call noundef float @_Z9SolveP5_1fffff(float noundef %18, float noundef %19, float noundef %20, float noundef %21, float noundef %22)
  %24 = load ptr, ptr %7, align 8, !tbaa !12
  %25 = getelementptr inbounds float, ptr %24, i64 0
  store float %23, ptr %25, align 4, !tbaa !14
  store float %23, ptr %13, align 4, !tbaa !14
  call void @llvm.lifetime.start.p0(i64 4, ptr %14) #8
  %26 = load float, ptr %8, align 4, !tbaa !14
  %27 = load float, ptr %13, align 4, !tbaa !14
  %28 = fadd float %26, %27
  store float %28, ptr %14, align 4, !tbaa !14
  call void @llvm.lifetime.start.p0(i64 4, ptr %15) #8
  %29 = load float, ptr %9, align 4, !tbaa !14
  %30 = load float, ptr %13, align 4, !tbaa !14
  %31 = load float, ptr %14, align 4, !tbaa !14
  %32 = call float @llvm.fmuladd.f32(float %30, float %31, float %29)
  store float %32, ptr %15, align 4, !tbaa !14
  call void @llvm.lifetime.start.p0(i64 4, ptr %16) #8
  %33 = load float, ptr %10, align 4, !tbaa !14
  %34 = load float, ptr %13, align 4, !tbaa !14
  %35 = load float, ptr %15, align 4, !tbaa !14
  %36 = call float @llvm.fmuladd.f32(float %34, float %35, float %33)
  store float %36, ptr %16, align 4, !tbaa !14
  call void @llvm.lifetime.start.p0(i64 4, ptr %17) #8
  %37 = load float, ptr %11, align 4, !tbaa !14
  %38 = load float, ptr %13, align 4, !tbaa !14
  %39 = load float, ptr %16, align 4, !tbaa !14
  %40 = call float @llvm.fmuladd.f32(float %38, float %39, float %37)
  store float %40, ptr %17, align 4, !tbaa !14
  %41 = load ptr, ptr %7, align 8, !tbaa !12
  %42 = getelementptr inbounds float, ptr %41, i64 1
  %43 = load float, ptr %14, align 4, !tbaa !14
  %44 = load float, ptr %15, align 4, !tbaa !14
  %45 = load float, ptr %16, align 4, !tbaa !14
  %46 = load float, ptr %17, align 4, !tbaa !14
  %47 = call noundef i32 @_Z7SolveP4Pfffff(ptr noundef %42, float noundef %43, float noundef %44, float noundef %45, float noundef %46)
  %48 = add nsw i32 1, %47
  call void @llvm.lifetime.end.p0(i64 4, ptr %17) #8
  call void @llvm.lifetime.end.p0(i64 4, ptr %16) #8
  call void @llvm.lifetime.end.p0(i64 4, ptr %15) #8
  call void @llvm.lifetime.end.p0(i64 4, ptr %14) #8
  call void @llvm.lifetime.end.p0(i64 4, ptr %13) #8
  ret i32 %48
}