; Function Attrs: mustprogress uwtable
define dso_local noundef range(i32 1, 6) i32 @_Z7SolveP5Pffffff(ptr noundef captures(none) initializes((0, 20)) %0, float noundef %1, float noundef %2, float noundef %3, float noundef %4, float noundef %5) local_unnamed_addr #2 {
  %7 = tail call noundef float @_Z9SolveP5_1fffff(float noundef %1, float noundef %2, float noundef %3, float noundef %4, float noundef %5)
  store float %7, ptr %0, align 4, !tbaa !8
  %8 = fadd float %1, %7
  %9 = tail call float @llvm.fmuladd.f32(float %7, float %8, float %2)
  %10 = tail call float @llvm.fmuladd.f32(float %7, float %9, float %3)
  %11 = tail call float @llvm.fmuladd.f32(float %7, float %10, float %4)
  %12 = getelementptr inbounds nuw i8, ptr %0, i64 4
  %13 = tail call noundef i32 @_Z7SolveP4Pfffff(ptr noundef nonnull %12, float noundef %8, float noundef %9, float noundef %10, float noundef %11)
  %14 = add nuw nsw i32 %13, 1
  ret i32 %14
}